target datalayout = "e-m:e-p270:32:32-p271:32:32-p272:64:64-i64:64-i128:128-f80:128-n8:16:32:64-S128"
target triple = "x86_64-pc-linux-gnu"

%class.context_t = type { ptr, ptr, ptr, %"class.std::unique_ptr" }
%"class.std::unique_ptr" = type { %"struct.std::__uniq_ptr_data" }
%"struct.std::__uniq_ptr_data" = type { %"class.std::__uniq_ptr_impl" }
%"class.std::__uniq_ptr_impl" = type { %"class.std::tuple" }
%"class.std::tuple" = type { %"struct.std::_Tuple_impl" }
%"struct.std::_Tuple_impl" = type { %"struct.std::_Head_base.1" }
%"struct.std::_Head_base.1" = type { ptr }
%struct.ucontext_t = type { i64, ptr, %struct.stack_t, %struct.mcontext_t, %struct.__sigset_t, %struct._libc_fpstate, [4 x i64] }
%struct.stack_t = type { ptr, i32, i64 }
%struct.mcontext_t = type { [23 x i64], ptr, [8 x i64] }
%struct.__sigset_t = type { [16 x i64] }
%struct._libc_fpstate = type { i16, i16, i16, i16, i64, i64, i32, i32, [8 x %struct._libc_fpxreg], [16 x %struct._libc_xmmreg], [24 x i32] }
%struct._libc_fpxreg = type { [4 x i16], i16, [3 x i16] }
%struct._libc_xmmreg = type { [4 x i32] }

@_ZL3cur = internal thread_local global ptr null, align 8

; Function Attrs: mustprogress nounwind uwtable
define linkonce_odr noundef nonnull align 8 dereferenceable(8) ptr @_ZNSt10_Head_baseILm0EP10ucontext_tLb0EE7_M_headERKS2_(ptr noundef nonnull align 8 dereferenceable(8) %0) #2 comdat align 2 {
  %2 = alloca ptr, align 8
  store ptr %0, ptr %2, align 8, !tbaa !48
  %3 = load ptr, ptr %2, align 8, !tbaa !48
  %4 = getelementptr inbounds nuw %"struct.std::_Head_base.1", ptr %3, i32 0, i32 0
  ret ptr %4
}

; Function Attrs: mustprogress nounwind uwtable
define linkonce_odr noundef nonnull align 8 dereferenceable(8) ptr @_ZNSt11_Tuple_implILm0EJP10ucontext_tSt14default_deleteIS0_EEE7_M_headERKS4_(ptr noundef nonnull align 8 dereferenceable(8) %0) #2 comdat align 2 {
  %2 = alloca ptr, align 8
  store ptr %0, ptr %2, align 8, !tbaa !44
  %3 = load ptr, ptr %2, align 8, !tbaa !44
  %4 = call noundef nonnull align 8 dereferenceable(8) ptr @_ZNSt10_Head_baseILm0EP10ucontext_tLb0EE7_M_headERKS2_(ptr noundef nonnull align 8 dereferenceable(8) %3) #12
  ret ptr %4
}

; Function Attrs: mustprogress nounwind uwtable
define linkonce_odr noundef nonnull align 8 dereferenceable(8) ptr @_ZSt12__get_helperILm0EP10ucontext_tJSt14default_deleteIS0_EEERKT0_RKSt11_Tuple_implIXT_EJS4_DpT1_EE(ptr noundef nonnull align 8 dereferenceable(8) %0) #2 comdat {
  %2 = alloca ptr, align 8
  store ptr %0, ptr %2, align 8, !tbaa !44
  %3 = load ptr, ptr %2, align 8, !tbaa !44
  %4 = call noundef nonnull align 8 dereferenceable(8) ptr @_ZNSt11_Tuple_implILm0EJP10ucontext_tSt14default_deleteIS0_EEE7_M_headERKS4_(ptr noundef nonnull align 8 dereferenceable(8) %3) #12
  ret ptr %4
}

; Function Attrs: mustprogress nounwind uwtable
define linkonce_odr noundef nonnull align 8 dereferenceable(8) ptr @_ZSt3getILm0EJP10ucontext_tSt14default_deleteIS0_EEERKNSt13tuple_elementIXT_ESt5tupleIJDpT0_EEE4typeERKS8_(ptr noundef nonnull align 8 dereferenceable(8) %0) #2 comdat {
  %2 = alloca ptr, align 8
  store ptr %0, ptr %2, align 8, !tbaa !42
  %3 = load ptr, ptr %2, align 8, !tbaa !42
  %4 = call noundef nonnull align 8 dereferenceable(8) ptr @_ZSt12__get_helperILm0EP10ucontext_tJSt14default_deleteIS0_EEERKT0_RKSt11_Tuple_implIXT_EJS4_DpT1_EE(ptr noundef nonnull align 8 dereferenceable(8) %3) #12
  ret ptr %4
}

; Function Attrs: mustprogress nounwind uwtable
define linkonce_odr noundef ptr @_ZNKSt15__uniq_ptr_implI10ucontext_tSt14default_deleteIS0_EE6_M_ptrEv(ptr noundef nonnull align 8 dereferenceable(8) %0) #2 comdat align 2 {
  %2 = alloca ptr, align 8
  store ptr %0, ptr %2, align 8, !tbaa !40
  %3 = load ptr, ptr %2, align 8
  %4 = getelementptr inbounds nuw %"class.std::__uniq_ptr_impl", ptr %3, i32 0, i32 0
  %5 = call noundef nonnull align 8 dereferenceable(8) ptr @_ZSt3getILm0EJP10ucontext_tSt14default_deleteIS0_EEERKNSt13tuple_elementIXT_ESt5tupleIJDpT0_EEE4typeERKS8_(ptr noundef nonnull align 8 dereferenceable(8) %4) #12
  %6 = load ptr, ptr %5, align 8, !tbaa !21
  ret ptr %6
}

; Function Attrs: mustprogress nounwind uwtable
define void @_ZN9context_t9switch_toEv(ptr noundef nonnull align 8 dereferenceable(32) %0) #2 align 2 {
  %2 = alloca ptr, align 8
  %3 = alloca ptr, align 8
  store ptr %0, ptr %2, align 8, !tbaa !3
  %4 = load ptr, ptr %2, align 8
  call void @llvm.lifetime.start.p0(i64 8, ptr %3) #12
  %5 = call align 8 ptr @llvm.threadlocal.address.p0(ptr align 8 @_ZL3cur)
  %6 = load ptr, ptr %5, align 8, !tbaa !3
  store ptr %6, ptr %3, align 8, !tbaa !3
  %7 = call align 8 ptr @llvm.threadlocal.address.p0(ptr align 8 @_ZL3cur)
  store ptr %4, ptr %7, align 8, !tbaa !3
  %8 = load ptr, ptr %3, align 8, !tbaa !3
  %9 = getelementptr inbounds nuw %class.context_t, ptr %8, i32 0, i32 3
  %10 = call noundef ptr @_ZNKSt10unique_ptrI10ucontext_tSt14default_deleteIS0_EE3getEv(ptr noundef nonnull align 8 dereferenceable(8) %9) #12
  %11 = getelementptr inbounds nuw %class.context_t, ptr %4, i32 0, i32 3
  %12 = call noundef ptr @_ZNKSt10unique_ptrI10ucontext_tSt14default_deleteIS0_EE3getEv(ptr noundef nonnull align 8 dereferenceable(8) %11) #12
  %13 = call i32 @swapcontext(ptr noundef %10, ptr noundef %12) #12
  %14 = icmp ne i32 %13, 0
  br i1 %14, label %15, label %16

15:                                               ; preds = %1
  call void @abort() #13
  unreachable

16:                                               ; preds = %1
  call void @llvm.lifetime.end.p0(i64 8, ptr %3) #12
  ret void
}

; Function Attrs: mustprogress nounwind uwtable
define linkonce_odr noundef ptr @_ZNKSt10unique_ptrI10ucontext_tSt14default_deleteIS0_EEptEv(ptr noundef nonnull align 8 dereferenceable(8) %0) #2 comdat align 2 {
  %2 = alloca ptr, align 8
  store ptr %0, ptr %2, align 8, !tbaa !19
  %3 = load ptr, ptr %2, align 8
  %4 = call noundef ptr @_ZNKSt10unique_ptrI10ucontext_tSt14default_deleteIS0_EE3getEv(ptr noundef nonnull align 8 dereferenceable(8) %3) #12
  ret ptr %4
}

; Function Attrs: mustprogress nounwind uwtable
define linkonce_odr noundef ptr @_ZNKSt10unique_ptrI10ucontext_tSt14default_deleteIS0_EE3getEv(ptr noundef nonnull align 8 dereferenceable(8) %0) #2 comdat align 2 {
  %2 = alloca ptr, align 8
  store ptr %0, ptr %2, align 8, !tbaa !19
  %3 = load ptr, ptr %2, align 8
  %4 = getelementptr inbounds nuw %"class.std::unique_ptr", ptr %3, i32 0, i32 0
  %5 = call noundef ptr @_ZNKSt15__uniq_ptr_implI10ucontext_tSt14default_deleteIS0_EE6_M_ptrEv(ptr noundef nonnull align 8 dereferenceable(8) %4) #12
  ret ptr %5
}

; Function Attrs: mustprogress uwtable
define void @_ZN9context_t4initEPFvPvES0_(ptr noundef nonnull align 8 dereferenceable(32) %0, ptr noundef %1, ptr noundef %2) #0 align 2 {
  %4 = alloca ptr, align 8
  %5 = alloca ptr, align 8
  %6 = alloca ptr, align 8
  %7 = alloca i32, align 4
  %8 = alloca i32, align 4
  store ptr %0, ptr %4, align 8, !tbaa !3
  store ptr %1, ptr %5, align 8, !tbaa !24
  store ptr %2, ptr %6, align 8, !tbaa !24
  %9 = load ptr, ptr %4, align 8
  %10 = load ptr, ptr %5, align 8, !tbaa !24
  %11 = getelementptr inbounds nuw %class.context_t, ptr %9, i32 0, i32 1
  store ptr %10, ptr %11, align 8, !tbaa !17
  %12 = load ptr, ptr %6, align 8, !tbaa !24
  %13 = getelementptr inbounds nuw %class.context_t, ptr %9, i32 0, i32 2
  store ptr %12, ptr %13, align 8, !tbaa !18
  %14 = call noundef ptr @_ZN9context_t7currentEv()
  %15 = getelementptr inbounds nuw %class.context_t, ptr %9, i32 0, i32 0
  store ptr %14, ptr %15, align 8, !tbaa !8
  %16 = getelementptr inbounds nuw %class.context_t, ptr %9, i32 0, i32 3
  %17 = call noundef ptr @_ZNKSt10unique_ptrI10ucontext_tSt14default_deleteIS0_EE3getEv(ptr noundef nonnull align 8 dereferenceable(8) %16) #12
  %18 = call i32 @getcontext(ptr noundef %17) #14
  %19 = getelementptr inbounds nuw %class.context_t, ptr %9, i32 0, i32 0
  %20 = load ptr, ptr %19, align 8, !tbaa !8
  %21 = getelementptr inbounds nuw %class.context_t, ptr %20, i32 0, i32 3
  %22 = call noundef ptr @_ZNKSt10unique_ptrI10ucontext_tSt14default_deleteIS0_EE3getEv(ptr noundef nonnull align 8 dereferenceable(8) %21) #12
  %23 = getelementptr inbounds nuw %class.context_t, ptr %9, i32 0, i32 3
  %24 = call noundef ptr @_ZNKSt10unique_ptrI10ucontext_tSt14default_deleteIS0_EEptEv(ptr noundef nonnull align 8 dereferenceable(8) %23) #12
  %25 = getelementptr inbounds nuw %struct.ucontext_t, ptr %24, i32 0, i32 1
  store ptr %22, ptr %25, align 8, !tbaa !25
  %26 = getelementptr inbounds nuw %class.context_t, ptr %9, i32 0, i32 3
  %27 = call noundef ptr @_ZNKSt10unique_ptrI10ucontext_tSt14default_deleteIS0_EEptEv(ptr noundef nonnull align 8 dereferenceable(8) %26) #12
  %28 = getelementptr inbounds nuw %struct.ucontext_t, ptr %27, i32 0, i32 2
  %29 = getelementptr inbounds nuw %struct.stack_t, ptr %28, i32 0, i32 2
  store i64 1048576, ptr %29, align 8, !tbaa !34
  %30 = getelementptr inbounds nuw %class.context_t, ptr %9, i32 0, i32 3
  %31 = call noundef ptr @_ZNKSt10unique_ptrI10ucontext_tSt14default_deleteIS0_EEptEv(ptr noundef nonnull align 8 dereferenceable(8) %30) #12
  %32 = getelementptr inbounds nuw %struct.ucontext_t, ptr %31, i32 0, i32 2
  %33 = getelementptr inbounds nuw %struct.stack_t, ptr %32, i32 0, i32 2
  %34 = load i64, ptr %33, align 8, !tbaa !34
  %35 = udiv i64 %34, 8
  %36 = call { i64, i1 } @llvm.umul.with.overflow.i64(i64 %35, i64 8)
  %37 = extractvalue { i64, i1 } %36, 1
  %38 = extractvalue { i64, i1 } %36, 0
  %39 = select i1 %37, i64 -1, i64 %38
  %40 = call noalias noundef nonnull ptr @_Znam(i64 noundef %39) #11
  %41 = getelementptr inbounds nuw %class.context_t, ptr %9, i32 0, i32 3
  %42 = call noundef ptr @_ZNKSt10unique_ptrI10ucontext_tSt14default_deleteIS0_EEptEv(ptr noundef nonnull align 8 dereferenceable(8) %41) #12
  %43 = getelementptr inbounds nuw %struct.ucontext_t, ptr %42, i32 0, i32 2
  %44 = getelementptr inbounds nuw %struct.stack_t, ptr %43, i32 0, i32 0
  store ptr %40, ptr %44, align 8, !tbaa !35
  call void @llvm.lifetime.start.p0(i64 4, ptr %7) #12
  %45 = ptrtoint ptr %9 to i64
  %46 = lshr i64 %45, 32
  %47 = trunc i64 %46 to i32
  store i32 %47, ptr %7, align 4, !tbaa !22
  call void @llvm.lifetime.start.p0(i64 4, ptr %8) #12
  %48 = ptrtoint ptr %9 to i64
  %49 = trunc i64 %48 to i32
  store i32 %49, ptr %8, align 4, !tbaa !22
  %50 = getelementptr inbounds nuw %class.context_t, ptr %9, i32 0, i32 3
  %51 = call noundef ptr @_ZNKSt10unique_ptrI10ucontext_tSt14default_deleteIS0_EE3getEv(ptr noundef nonnull align 8 dereferenceable(8) %50) #12
  %52 = load i32, ptr %7, align 4, !tbaa !22
  %53 = load i32, ptr %8, align 4, !tbaa !22
  call void (ptr, ptr, i32, ...) @makecontext(ptr noundef %51, ptr noundef @_ZN9context_t7wrapperEjj, i32 noundef 2, i32 noundef %52, i32 noundef %53) #12
  call void @_ZN9context_t9switch_toEv(ptr noundef nonnull align 8 dereferenceable(32) %9)
  call void @llvm.lifetime.end.p0(i64 4, ptr %8) #12
  call void @llvm.lifetime.end.p0(i64 4, ptr %7) #12
  ret void
}