; Function Attrs: mustprogress uwtable
define void @_ZN9context_t4initEPFvPvES0_(ptr noundef nonnull align 8 dereferenceable(32) initializes((0, 24)) %0, ptr noundef %1, ptr noundef %2) local_unnamed_addr #0 align 2 {
  %4 = getelementptr inbounds nuw i8, ptr %0, i64 8
  store ptr %1, ptr %4, align 8, !tbaa !18
  %5 = getelementptr inbounds nuw i8, ptr %0, i64 16
  store ptr %2, ptr %5, align 8, !tbaa !19
  %6 = call noundef ptr @_ZN9context_t7currentEv()
  store ptr %6, ptr %0, align 8, !tbaa !8
  %7 = getelementptr inbounds nuw i8, ptr %0, i64 24
  %8 = load ptr, ptr %7, align 8, !tbaa !3
  %9 = call i32 @getcontext(ptr noundef %8) #12
  %10 = load ptr, ptr %0, align 8, !tbaa !8
  %11 = getelementptr inbounds nuw i8, ptr %10, i64 24
  %12 = load ptr, ptr %11, align 8, !tbaa !3
  %13 = load ptr, ptr %7, align 8, !tbaa !3
  %14 = getelementptr inbounds nuw i8, ptr %13, i64 8
  store ptr %12, ptr %14, align 8, !tbaa !20
  %15 = load ptr, ptr %7, align 8, !tbaa !3
  %16 = getelementptr inbounds nuw i8, ptr %15, i64 32
  store i64 1048576, ptr %16, align 8, !tbaa !30
  %17 = call noalias noundef nonnull dereferenceable(1048576) ptr @_Znam(i64 noundef 1048576) #9
  %18 = getelementptr inbounds nuw i8, ptr %15, i64 16
  store ptr %17, ptr %18, align 8, !tbaa !31
  %19 = ptrtoint ptr %0 to i64
  %20 = lshr i64 %19, 32
  %21 = trunc nuw i64 %20 to i32
  %22 = trunc i64 %19 to i32
  call void (ptr, ptr, i32, ...) @makecontext(ptr noundef %15, ptr noundef nonnull @_ZN9context_t7wrapperEjj, i32 noundef 2, i32 noundef %21, i32 noundef %22) #10
  %23 = call align 8 ptr @llvm.threadlocal.address.p0(ptr align 8 @_ZL3cur)
  %24 = load ptr, ptr %23, align 8, !tbaa !17
  store ptr %0, ptr %23, align 8, !tbaa !17
  %25 = getelementptr inbounds nuw i8, ptr %24, i64 24
  %26 = load ptr, ptr %25, align 8, !tbaa !3
  %27 = load ptr, ptr %7, align 8, !tbaa !3
  %28 = call i32 @swapcontext(ptr noundef %26, ptr noundef %27) #10
  %.not.i = icmp eq i32 %28, 0
  br i1 %.not.i, label %_ZN9context_t9switch_toEv.exit, label %29

29:                                               ; preds = %3
  call void @abort() #11
  unreachable

_ZN9context_t9switch_toEv.exit:                   ; preds = %3
  ret void
}